target datalayout = "e-m:e-p270:32:32-p271:32:32-p272:64:64-i64:64-i128:128-f80:128-n8:16:32:64-S128"
target triple = "x86_64-pc-linux-gnu"

%struct.AVFilterContext = type { ptr, ptr, ptr, ptr, ptr, i32, ptr, ptr, i32, ptr, ptr, i32, i32, ptr, ptr, ptr, ptr, i32, ptr, i32, i32 }
%struct.ShufflePixelsContext = type { ptr, i32, i32, i32, i32, i64, i32, i32, [4 x i32], [4 x i32], [4 x i32], i32, ptr, ptr, %struct.AVLFG, ptr }
%struct.AVLFG = type { [64 x i32], i32 }
%struct.ThreadData = type { ptr, ptr }
%struct.AVChannelLayout = type { i32, i32, %union.anon.1, ptr }
%union.anon.1 = type { i64 }
%struct.AVRational = type { i32, i32 }
%struct.AVFrame = type { [8 x ptr], [8 x i32], ptr, i32, i32, i32, i32, i32, %struct.AVRational, i64, i64, %struct.AVRational, i32, ptr, i32, i32, [8 x ptr], ptr, i32, ptr, i32, i32, i32, i32, i32, i32, i32, i64, ptr, i32, ptr, ptr, i64, i64, i64, i64, ptr, %struct.AVChannelLayout, i64 }

; Function Attrs: nounwind uwtable
define internal i32 @shuffle_block16(ptr noundef %0, ptr noundef %1, i32 noundef %2, i32 noundef %3) #1 {
  %5 = alloca ptr, align 8
  %6 = alloca ptr, align 8
  %7 = alloca i32, align 4
  %8 = alloca i32, align 4
  %9 = alloca ptr, align 8
  %10 = alloca ptr, align 8
  %11 = alloca ptr, align 8
  %12 = alloca ptr, align 8
  %13 = alloca i32, align 4
  %14 = alloca i32, align 4
  %15 = alloca i32, align 4
  %16 = alloca i32, align 4
  %17 = alloca ptr, align 8
  %18 = alloca ptr, align 8
  %19 = alloca ptr, align 8
  %20 = alloca i32, align 4
  %21 = alloca i32, align 4
  %22 = alloca i32, align 4
  %23 = alloca i32, align 4
  store ptr %0, ptr %5, align 8, !tbaa !4
  store ptr %1, ptr %6, align 8, !tbaa !73
  store i32 %2, ptr %7, align 4, !tbaa !44
  store i32 %3, ptr %8, align 4, !tbaa !44
  call void @llvm.lifetime.start.p0(i64 8, ptr %9) #9
  %24 = load ptr, ptr %5, align 8, !tbaa !4
  %25 = getelementptr inbounds nuw %struct.AVFilterContext, ptr %24, i32 0, i32 9
  %26 = load ptr, ptr %25, align 8, !tbaa !9
  store ptr %26, ptr %9, align 8, !tbaa !22
  call void @llvm.lifetime.start.p0(i64 8, ptr %10) #9
  %27 = load ptr, ptr %6, align 8, !tbaa !73
  store ptr %27, ptr %10, align 8, !tbaa !74
  call void @llvm.lifetime.start.p0(i64 8, ptr %11) #9
  %28 = load ptr, ptr %10, align 8, !tbaa !74
  %29 = getelementptr inbounds nuw %struct.ThreadData, ptr %28, i32 0, i32 0
  %30 = load ptr, ptr %29, align 8, !tbaa !47
  store ptr %30, ptr %11, align 8, !tbaa !26
  call void @llvm.lifetime.start.p0(i64 8, ptr %12) #9
  %31 = load ptr, ptr %10, align 8, !tbaa !74
  %32 = getelementptr inbounds nuw %struct.ThreadData, ptr %31, i32 0, i32 1
  %33 = load ptr, ptr %32, align 8, !tbaa !45
  store ptr %33, ptr %12, align 8, !tbaa !26
  call void @llvm.lifetime.start.p0(i64 4, ptr %13) #9
  store i32 0, ptr %13, align 4, !tbaa !44
  br label %34

34:                                               ; preds = %187, %4
  %35 = load i32, ptr %13, align 4, !tbaa !44
  %36 = load ptr, ptr %9, align 8, !tbaa !22
  %37 = getelementptr inbounds nuw %struct.ShufflePixelsContext, ptr %36, i32 0, i32 7
  %38 = load i32, ptr %37, align 4, !tbaa !58
  %39 = icmp slt i32 %35, %38
  br i1 %39, label %41, label %40

40:                                               ; preds = %34
  store i32 2, ptr %14, align 4
  call void @llvm.lifetime.end.p0(i64 4, ptr %13) #9
  br label %190

41:                                               ; preds = %34
  call void @llvm.lifetime.start.p0(i64 4, ptr %15) #9
  %42 = load ptr, ptr %9, align 8, !tbaa !22
  %43 = getelementptr inbounds nuw %struct.ShufflePixelsContext, ptr %42, i32 0, i32 10
  %44 = load i32, ptr %13, align 4, !tbaa !44
  %45 = sext i32 %44 to i64
  %46 = getelementptr inbounds [4 x i32], ptr %43, i64 0, i64 %45
  %47 = load i32, ptr %46, align 4, !tbaa !44
  %48 = load i32, ptr %7, align 4, !tbaa !44
  %49 = mul nsw i32 %47, %48
  %50 = load i32, ptr %8, align 4, !tbaa !44
  %51 = sdiv i32 %49, %50
  store i32 %51, ptr %15, align 4, !tbaa !44
  call void @llvm.lifetime.start.p0(i64 4, ptr %16) #9
  %52 = load ptr, ptr %9, align 8, !tbaa !22
  %53 = getelementptr inbounds nuw %struct.ShufflePixelsContext, ptr %52, i32 0, i32 10
  %54 = load i32, ptr %13, align 4, !tbaa !44
  %55 = sext i32 %54 to i64
  %56 = getelementptr inbounds [4 x i32], ptr %53, i64 0, i64 %55
  %57 = load i32, ptr %56, align 4, !tbaa !44
  %58 = load i32, ptr %7, align 4, !tbaa !44
  %59 = add nsw i32 %58, 1
  %60 = mul nsw i32 %57, %59
  %61 = load i32, ptr %8, align 4, !tbaa !44
  %62 = sdiv i32 %60, %61
  store i32 %62, ptr %16, align 4, !tbaa !44
  call void @llvm.lifetime.start.p0(i64 8, ptr %17) #9
  %63 = load ptr, ptr %12, align 8, !tbaa !26
  %64 = getelementptr inbounds nuw %struct.AVFrame, ptr %63, i32 0, i32 0
  %65 = load i32, ptr %13, align 4, !tbaa !44
  %66 = sext i32 %65 to i64
  %67 = getelementptr inbounds [8 x ptr], ptr %64, i64 0, i64 %66
  %68 = load ptr, ptr %67, align 8, !tbaa !76
  %69 = load i32, ptr %15, align 4, !tbaa !44
  %70 = load ptr, ptr %12, align 8, !tbaa !26
  %71 = getelementptr inbounds nuw %struct.AVFrame, ptr %70, i32 0, i32 1
  %72 = load i32, ptr %13, align 4, !tbaa !44
  %73 = sext i32 %72 to i64
  %74 = getelementptr inbounds [8 x i32], ptr %71, i64 0, i64 %73
  %75 = load i32, ptr %74, align 4, !tbaa !44
  %76 = mul nsw i32 %69, %75
  %77 = sext i32 %76 to i64
  %78 = getelementptr inbounds i8, ptr %68, i64 %77
  store ptr %78, ptr %17, align 8, !tbaa !83
  call void @llvm.lifetime.start.p0(i64 8, ptr %18) #9
  %79 = load ptr, ptr %11, align 8, !tbaa !26
  %80 = getelementptr inbounds nuw %struct.AVFrame, ptr %79, i32 0, i32 0
  %81 = load i32, ptr %13, align 4, !tbaa !44
  %82 = sext i32 %81 to i64
  %83 = getelementptr inbounds [8 x ptr], ptr %80, i64 0, i64 %82
  %84 = load ptr, ptr %83, align 8, !tbaa !76
  store ptr %84, ptr %18, align 8, !tbaa !83
  call void @llvm.lifetime.start.p0(i64 8, ptr %19) #9
  %85 = load ptr, ptr %9, align 8, !tbaa !22
  %86 = getelementptr inbounds nuw %struct.ShufflePixelsContext, ptr %85, i32 0, i32 13
  %87 = load ptr, ptr %86, align 8, !tbaa !67
  %88 = load i32, ptr %15, align 4, !tbaa !44
  %89 = load ptr, ptr %9, align 8, !tbaa !22
  %90 = getelementptr inbounds nuw %struct.ShufflePixelsContext, ptr %89, i32 0, i32 9
  %91 = load i32, ptr %13, align 4, !tbaa !44
  %92 = sext i32 %91 to i64
  %93 = getelementptr inbounds [4 x i32], ptr %90, i64 0, i64 %92
  %94 = load i32, ptr %93, align 4, !tbaa !44
  %95 = mul nsw i32 %88, %94
  %96 = sext i32 %95 to i64
  %97 = getelementptr inbounds i32, ptr %87, i64 %96
  store ptr %97, ptr %19, align 8, !tbaa !77
  call void @llvm.lifetime.start.p0(i64 4, ptr %20) #9
  %98 = load i32, ptr %15, align 4, !tbaa !44
  store i32 %98, ptr %20, align 4, !tbaa !44
  br label %99

99:                                               ; preds = %183, %41
  %100 = load i32, ptr %20, align 4, !tbaa !44
  %101 = load i32, ptr %16, align 4, !tbaa !44
  %102 = icmp slt i32 %100, %101
  br i1 %102, label %104, label %103

103:                                              ; preds = %99
  store i32 5, ptr %14, align 4
  call void @llvm.lifetime.end.p0(i64 4, ptr %20) #9
  br label %186

104:                                              ; preds = %99
  call void @llvm.lifetime.start.p0(i64 4, ptr %21) #9
  store i32 0, ptr %21, align 4, !tbaa !44
  br label %105

105:                                              ; preds = %160, %104
  %106 = load i32, ptr %21, align 4, !tbaa !44
  %107 = load ptr, ptr %9, align 8, !tbaa !22
  %108 = getelementptr inbounds nuw %struct.ShufflePixelsContext, ptr %107, i32 0, i32 9
  %109 = load i32, ptr %13, align 4, !tbaa !44
  %110 = sext i32 %109 to i64
  %111 = getelementptr inbounds [4 x i32], ptr %108, i64 0, i64 %110
  %112 = load i32, ptr %111, align 4, !tbaa !44
  %113 = icmp slt i32 %106, %112
  br i1 %113, label %115, label %114

114:                                              ; preds = %105
  store i32 8, ptr %14, align 4
  call void @llvm.lifetime.end.p0(i64 4, ptr %21) #9
  br label %163

115:                                              ; preds = %105
  call void @llvm.lifetime.start.p0(i64 4, ptr %22) #9
  %116 = load ptr, ptr %19, align 8, !tbaa !77
  %117 = load i32, ptr %21, align 4, !tbaa !44
  %118 = sext i32 %117 to i64
  %119 = getelementptr inbounds i32, ptr %116, i64 %118
  %120 = load i32, ptr %119, align 4, !tbaa !44
  %121 = load ptr, ptr %9, align 8, !tbaa !22
  %122 = getelementptr inbounds nuw %struct.ShufflePixelsContext, ptr %121, i32 0, i32 9
  %123 = load i32, ptr %13, align 4, !tbaa !44
  %124 = sext i32 %123 to i64
  %125 = getelementptr inbounds [4 x i32], ptr %122, i64 0, i64 %124
  %126 = load i32, ptr %125, align 4, !tbaa !44
  %127 = sdiv i32 %120, %126
  store i32 %127, ptr %22, align 4, !tbaa !44
  call void @llvm.lifetime.start.p0(i64 4, ptr %23) #9
  %128 = load ptr, ptr %19, align 8, !tbaa !77
  %129 = load i32, ptr %21, align 4, !tbaa !44
  %130 = sext i32 %129 to i64
  %131 = getelementptr inbounds i32, ptr %128, i64 %130
  %132 = load i32, ptr %131, align 4, !tbaa !44
  %133 = load ptr, ptr %9, align 8, !tbaa !22
  %134 = getelementptr inbounds nuw %struct.ShufflePixelsContext, ptr %133, i32 0, i32 9
  %135 = load i32, ptr %13, align 4, !tbaa !44
  %136 = sext i32 %135 to i64
  %137 = getelementptr inbounds [4 x i32], ptr %134, i64 0, i64 %136
  %138 = load i32, ptr %137, align 4, !tbaa !44
  %139 = srem i32 %132, %138
  store i32 %139, ptr %23, align 4, !tbaa !44
  %140 = load ptr, ptr %18, align 8, !tbaa !83
  %141 = load i32, ptr %23, align 4, !tbaa !44
  %142 = sext i32 %141 to i64
  %143 = load i32, ptr %22, align 4, !tbaa !44
  %144 = load ptr, ptr %11, align 8, !tbaa !26
  %145 = getelementptr inbounds nuw %struct.AVFrame, ptr %144, i32 0, i32 1
  %146 = load i32, ptr %13, align 4, !tbaa !44
  %147 = sext i32 %146 to i64
  %148 = getelementptr inbounds [8 x i32], ptr %145, i64 0, i64 %147
  %149 = load i32, ptr %148, align 4, !tbaa !44
  %150 = mul nsw i32 %143, %149
  %151 = sext i32 %150 to i64
  %152 = udiv i64 %151, 2
  %153 = add i64 %142, %152
  %154 = getelementptr inbounds nuw i16, ptr %140, i64 %153
  %155 = load i16, ptr %154, align 2, !tbaa !85
  %156 = load ptr, ptr %17, align 8, !tbaa !83
  %157 = load i32, ptr %21, align 4, !tbaa !44
  %158 = sext i32 %157 to i64
  %159 = getelementptr inbounds i16, ptr %156, i64 %158
  store i16 %155, ptr %159, align 2, !tbaa !85
  call void @llvm.lifetime.end.p0(i64 4, ptr %23) #9
  call void @llvm.lifetime.end.p0(i64 4, ptr %22) #9
  br label %160

160:                                              ; preds = %115
  %161 = load i32, ptr %21, align 4, !tbaa !44
  %162 = add nsw i32 %161, 1
  store i32 %162, ptr %21, align 4, !tbaa !44
  br label %105, !llvm.loop !97

163:                                              ; preds = %114
  %164 = load ptr, ptr %12, align 8, !tbaa !26
  %165 = getelementptr inbounds nuw %struct.AVFrame, ptr %164, i32 0, i32 1
  %166 = load i32, ptr %13, align 4, !tbaa !44
  %167 = sext i32 %166 to i64
  %168 = getelementptr inbounds [8 x i32], ptr %165, i64 0, i64 %167
  %169 = load i32, ptr %168, align 4, !tbaa !44
  %170 = sext i32 %169 to i64
  %171 = udiv i64 %170, 2
  %172 = load ptr, ptr %17, align 8, !tbaa !83
  %173 = getelementptr inbounds nuw i16, ptr %172, i64 %171
  store ptr %173, ptr %17, align 8, !tbaa !83
  %174 = load ptr, ptr %9, align 8, !tbaa !22
  %175 = getelementptr inbounds nuw %struct.ShufflePixelsContext, ptr %174, i32 0, i32 9
  %176 = load i32, ptr %13, align 4, !tbaa !44
  %177 = sext i32 %176 to i64
  %178 = getelementptr inbounds [4 x i32], ptr %175, i64 0, i64 %177
  %179 = load i32, ptr %178, align 4, !tbaa !44
  %180 = load ptr, ptr %19, align 8, !tbaa !77
  %181 = sext i32 %179 to i64
  %182 = getelementptr inbounds i32, ptr %180, i64 %181
  store ptr %182, ptr %19, align 8, !tbaa !77
  br label %183

183:                                              ; preds = %163
  %184 = load i32, ptr %20, align 4, !tbaa !44
  %185 = add nsw i32 %184, 1
  store i32 %185, ptr %20, align 4, !tbaa !44
  br label %99, !llvm.loop !98

186:                                              ; preds = %103
  call void @llvm.lifetime.end.p0(i64 8, ptr %19) #9
  call void @llvm.lifetime.end.p0(i64 8, ptr %18) #9
  call void @llvm.lifetime.end.p0(i64 8, ptr %17) #9
  call void @llvm.lifetime.end.p0(i64 4, ptr %16) #9
  call void @llvm.lifetime.end.p0(i64 4, ptr %15) #9
  br label %187

187:                                              ; preds = %186
  %188 = load i32, ptr %13, align 4, !tbaa !44
  %189 = add nsw i32 %188, 1
  store i32 %189, ptr %13, align 4, !tbaa !44
  br label %34, !llvm.loop !99

190:                                              ; preds = %40
  store i32 1, ptr %14, align 4
  call void @llvm.lifetime.end.p0(i64 8, ptr %12) #9
  call void @llvm.lifetime.end.p0(i64 8, ptr %11) #9
  call void @llvm.lifetime.end.p0(i64 8, ptr %10) #9
  call void @llvm.lifetime.end.p0(i64 8, ptr %9) #9
  ret i32 0
}