; Function Attrs: nofree norecurse nosync nounwind memory(readwrite, inaccessiblemem: none) uwtable
define internal noundef i32 @shuffle_block16(ptr noundef readonly captures(none) %0, ptr noundef readonly captures(none) %1, i32 noundef %2, i32 noundef %3) #5 {
  %5 = getelementptr inbounds nuw i8, ptr %0, i64 72
  %6 = load ptr, ptr %5, align 8, !tbaa !4
  %7 = load ptr, ptr %1, align 8, !tbaa !43
  %8 = getelementptr inbounds nuw i8, ptr %1, i64 8
  %9 = load ptr, ptr %8, align 8, !tbaa !41
  %10 = getelementptr inbounds nuw i8, ptr %6, i64 36
  %11 = load i32, ptr %10, align 4, !tbaa !53
  %12 = icmp sgt i32 %11, 0
  br i1 %12, label %.lr.ph, label %._crit_edge

.lr.ph:                                           ; preds = %4
  %13 = getelementptr inbounds nuw i8, ptr %6, i64 72
  %14 = add nsw i32 %2, 1
  %15 = getelementptr inbounds nuw i8, ptr %9, i64 64
  %16 = getelementptr inbounds nuw i8, ptr %6, i64 104
  %17 = load ptr, ptr %16, align 8, !tbaa !62
  %18 = getelementptr inbounds nuw i8, ptr %6, i64 56
  %19 = getelementptr inbounds nuw i8, ptr %7, i64 64
  %wide.trip.count71 = zext nneg i32 %11 to i64
  br label %20

._crit_edge:                                      ; preds = %._crit_edge63, %4
  ret i32 0

20:                                               ; preds = %.lr.ph, %._crit_edge63
  %indvars.iv68 = phi i64 [ 0, %.lr.ph ], [ %indvars.iv.next69, %._crit_edge63 ]
  %21 = getelementptr inbounds nuw [4 x i32], ptr %13, i64 0, i64 %indvars.iv68
  %22 = load i32, ptr %21, align 4, !tbaa !48
  %23 = mul nsw i32 %22, %2
  %24 = sdiv i32 %23, %3
  %25 = mul nsw i32 %22, %14
  %26 = sdiv i32 %25, %3
  %27 = getelementptr inbounds nuw [8 x ptr], ptr %9, i64 0, i64 %indvars.iv68
  %28 = load ptr, ptr %27, align 8, !tbaa !84
  %29 = getelementptr inbounds nuw [8 x i32], ptr %15, i64 0, i64 %indvars.iv68
  %30 = load i32, ptr %29, align 4, !tbaa !48
  %31 = mul nsw i32 %30, %24
  %32 = sext i32 %31 to i64
  %33 = getelementptr inbounds i8, ptr %28, i64 %32
  %34 = getelementptr inbounds nuw [8 x ptr], ptr %7, i64 0, i64 %indvars.iv68
  %35 = load ptr, ptr %34, align 8, !tbaa !84
  %36 = getelementptr inbounds nuw [4 x i32], ptr %18, i64 0, i64 %indvars.iv68
  %37 = load i32, ptr %36, align 4, !tbaa !48
  %38 = mul nsw i32 %37, %24
  %39 = sext i32 %38 to i64
  %40 = getelementptr inbounds i32, ptr %17, i64 %39
  %41 = icmp slt i32 %24, %26
  br i1 %41, label %.preheader.lr.ph, label %._crit_edge63

.preheader.lr.ph:                                 ; preds = %20
  %42 = icmp sgt i32 %37, 0
  %43 = sext i32 %30 to i64
  %44 = lshr i64 %43, 1
  %45 = sext i32 %37 to i64
  br i1 %42, label %.preheader.lr.ph.split.us, label %._crit_edge63

.preheader.lr.ph.split.us:                        ; preds = %.preheader.lr.ph
  %46 = getelementptr inbounds nuw [8 x i32], ptr %19, i64 0, i64 %indvars.iv68
  %47 = load i32, ptr %46, align 4, !tbaa !48
  %wide.trip.count = zext nneg i32 %37 to i64
  br label %.preheader.us

.preheader.us:                                    ; preds = %._crit_edge.us, %.preheader.lr.ph.split.us
  %.05562.us = phi i32 [ %24, %.preheader.lr.ph.split.us ], [ %63, %._crit_edge.us ]
  %.05661.us = phi ptr [ %40, %.preheader.lr.ph.split.us ], [ %62, %._crit_edge.us ]
  %.05760.us = phi ptr [ %33, %.preheader.lr.ph.split.us ], [ %61, %._crit_edge.us ]
  br label %48

48:                                               ; preds = %.preheader.us, %48
  %indvars.iv = phi i64 [ 0, %.preheader.us ], [ %indvars.iv.next, %48 ]
  %49 = getelementptr inbounds nuw i32, ptr %.05661.us, i64 %indvars.iv
  %50 = load i32, ptr %49, align 4, !tbaa !48
  %51 = sdiv i32 %50, %37
  %52 = srem i32 %50, %37
  %53 = sext i32 %52 to i64
  %54 = mul nsw i32 %47, %51
  %55 = sext i32 %54 to i64
  %56 = lshr i64 %55, 1
  %57 = getelementptr i16, ptr %35, i64 %56
  %58 = getelementptr i16, ptr %57, i64 %53
  %59 = load i16, ptr %58, align 2, !tbaa !88
  %60 = getelementptr inbounds nuw i16, ptr %.05760.us, i64 %indvars.iv
  store i16 %59, ptr %60, align 2, !tbaa !88
  %indvars.iv.next = add nuw nsw i64 %indvars.iv, 1
  %exitcond.not = icmp eq i64 %indvars.iv.next, %wide.trip.count
  br i1 %exitcond.not, label %._crit_edge.us, label %48, !llvm.loop !100

._crit_edge.us:                                   ; preds = %48
  %61 = getelementptr inbounds nuw i16, ptr %.05760.us, i64 %44
  %62 = getelementptr inbounds nuw i32, ptr %.05661.us, i64 %45
  %63 = add nsw i32 %.05562.us, 1
  %exitcond67.not = icmp eq i32 %63, %26
  br i1 %exitcond67.not, label %._crit_edge63, label %.preheader.us, !llvm.loop !101

._crit_edge63:                                    ; preds = %._crit_edge.us, %.preheader.lr.ph, %20
  %indvars.iv.next69 = add nuw nsw i64 %indvars.iv68, 1
  %exitcond72.not = icmp eq i64 %indvars.iv.next69, %wide.trip.count71
  br i1 %exitcond72.not, label %._crit_edge, label %20, !llvm.loop !102
}